; Function Attrs: nounwind uwtable
define i32 @H5S_select_iter_next(ptr noundef %0, i64 noundef %1) local_unnamed_addr #3 {
  %3 = load ptr, ptr %0, align 8
  %4 = getelementptr inbounds i8, ptr %3, i64 40
  %5 = load ptr, ptr %4, align 8
  %6 = tail call i32 %5(ptr noundef nonnull %0, i64 noundef %1) #7
  %7 = getelementptr inbounds i8, ptr %0, i64 528
  %8 = load i64, ptr %7, align 8
  %9 = sub i64 %8, %1
  store i64 %9, ptr %7, align 8
  ret i32 %6
}